; Function Attrs: mustprogress nounwind uwtable
define hidden void @_ZN14G1SurvivorPool16get_memory_usageEv(ptr dead_on_unwind noalias writable sret(%class.MemoryUsage) align 8 %0, ptr noundef nonnull align 8 dereferenceable(216) %1) unnamed_addr #0 align 2 {
  %3 = getelementptr inbounds i8, ptr %1, i64 208
  %4 = load ptr, ptr %3, align 8
  %5 = getelementptr inbounds i8, ptr %1, i64 24
  %6 = load i64, ptr %5, align 8
  %7 = load ptr, ptr %1, align 8
  %8 = getelementptr inbounds i8, ptr %7, i64 16
  %9 = load ptr, ptr %8, align 8
  %10 = tail call noundef i64 %9(ptr noundef nonnull align 8 dereferenceable(201) %1) #5
  tail call void @_ZN19G1MonitoringSupport27survivor_space_memory_usageEmm(ptr dead_on_unwind writable sret(%class.MemoryUsage) align 8 %0, ptr noundef nonnull align 8 dereferenceable(752) %4, i64 noundef %6, i64 noundef %10) #5
  ret void
}